CCS PCM C Compiler, Version 5.076, 56587               14-dic.-21 22:26

               Filename:   C:\Users\Muerto\Documents\VS\Proyecto_Intru\Sensor Ultrasonico PWM\sensor_ultrasonico_pwm.lst

               ROM used:   1060 words (13%)
                           Largest free fragment is 2048
               RAM used:   28 (8%) at main() level
                           50 (14%) worst case
               Stack used: 2 locations
               Stack size: 8

*
0000:  MOVLW  02
0001:  MOVWF  0A
0002:  GOTO   2CB
0003:  NOP
.................... #include <16f877a.h> 
.................... //////////// Standard Header file for the PIC16F877A device //////////////// 
.................... /////////////////////////////////////////////////////////////////////////// 
.................... ////        (C) Copyright 1996, 2014 Custom Computer Services          //// 
.................... //// This source code may only be used by licensed users of the CCS C  //// 
.................... //// compiler.  This source code may only be distributed to other      //// 
.................... //// licensed users of the CCS C compiler.  No other use, reproduction //// 
.................... //// or distribution is permitted without written permission.          //// 
.................... //// Derivative programs created using this software in object code    //// 
.................... //// form are not restricted in any way.                               //// 
.................... /////////////////////////////////////////////////////////////////////////// 
.................... #device PIC16F877A 
0004:  MOVLW  8E
0005:  MOVWF  77
0006:  MOVF   34,W
0007:  MOVWF  78
0008:  MOVF   33,W
0009:  MOVWF  79
000A:  CLRF   7A
000B:  MOVF   78,F
000C:  BTFSS  03.2
000D:  GOTO   018
000E:  MOVF   79,W
000F:  MOVWF  78
0010:  CLRF   79
0011:  MOVLW  08
0012:  SUBWF  77,F
0013:  MOVF   78,F
0014:  BTFSS  03.2
0015:  GOTO   018
0016:  CLRF   77
0017:  GOTO   020
0018:  BCF    03.0
0019:  BTFSC  78.7
001A:  GOTO   01F
001B:  RLF    79,F
001C:  RLF    78,F
001D:  DECF   77,F
001E:  GOTO   018
001F:  BCF    78.7
0020:  RETURN
0021:  MOVF   37,W
0022:  BTFSC  03.2
0023:  GOTO   0E6
0024:  MOVWF  43
0025:  MOVF   3B,W
0026:  BTFSC  03.2
0027:  GOTO   0E6
0028:  SUBWF  43,F
0029:  BTFSS  03.0
002A:  GOTO   030
002B:  MOVLW  7F
002C:  ADDWF  43,F
002D:  BTFSC  03.0
002E:  GOTO   0E6
002F:  GOTO   036
0030:  MOVLW  81
0031:  SUBWF  43,F
0032:  BTFSS  03.0
0033:  GOTO   0E6
0034:  BTFSC  03.2
0035:  GOTO   0E6
0036:  MOVF   43,W
0037:  MOVWF  77
0038:  CLRF   78
0039:  CLRF   79
003A:  CLRF   7A
003B:  CLRF   42
003C:  MOVF   38,W
003D:  MOVWF  41
003E:  BSF    41.7
003F:  MOVF   39,W
0040:  MOVWF  40
0041:  MOVF   3A,W
0042:  MOVWF  3F
0043:  MOVLW  19
0044:  MOVWF  43
0045:  MOVF   3E,W
0046:  SUBWF  3F,F
0047:  BTFSC  03.0
0048:  GOTO   059
0049:  MOVLW  01
004A:  SUBWF  40,F
004B:  BTFSC  03.0
004C:  GOTO   059
004D:  SUBWF  41,F
004E:  BTFSC  03.0
004F:  GOTO   059
0050:  SUBWF  42,F
0051:  BTFSC  03.0
0052:  GOTO   059
0053:  INCF   42,F
0054:  INCF   41,F
0055:  INCF   40,F
0056:  MOVF   3E,W
0057:  ADDWF  3F,F
0058:  GOTO   08B
0059:  MOVF   3D,W
005A:  SUBWF  40,F
005B:  BTFSC  03.0
005C:  GOTO   074
005D:  MOVLW  01
005E:  SUBWF  41,F
005F:  BTFSC  03.0
0060:  GOTO   074
0061:  SUBWF  42,F
0062:  BTFSC  03.0
0063:  GOTO   074
0064:  INCF   42,F
0065:  INCF   41,F
0066:  MOVF   3D,W
0067:  ADDWF  40,F
0068:  MOVF   3E,W
0069:  ADDWF  3F,F
006A:  BTFSS  03.0
006B:  GOTO   08B
006C:  INCF   40,F
006D:  BTFSS  03.2
006E:  GOTO   08B
006F:  INCF   41,F
0070:  BTFSS  03.2
0071:  GOTO   08B
0072:  INCF   42,F
0073:  GOTO   08B
0074:  MOVF   3C,W
0075:  IORLW  80
0076:  SUBWF  41,F
0077:  BTFSC  03.0
0078:  GOTO   08A
0079:  MOVLW  01
007A:  SUBWF  42,F
007B:  BTFSC  03.0
007C:  GOTO   08A
007D:  INCF   42,F
007E:  MOVF   3C,W
007F:  IORLW  80
0080:  ADDWF  41,F
0081:  MOVF   3D,W
0082:  ADDWF  40,F
0083:  BTFSS  03.0
0084:  GOTO   068
0085:  INCF   41,F
0086:  BTFSS  03.2
0087:  GOTO   068
0088:  INCF   42,F
0089:  GOTO   068
008A:  BSF    7A.0
008B:  DECFSZ 43,F
008C:  GOTO   08E
008D:  GOTO   099
008E:  BCF    03.0
008F:  RLF    3F,F
0090:  RLF    40,F
0091:  RLF    41,F
0092:  RLF    42,F
0093:  BCF    03.0
0094:  RLF    7A,F
0095:  RLF    79,F
0096:  RLF    78,F
0097:  RLF    44,F
0098:  GOTO   045
0099:  BTFSS  44.0
009A:  GOTO   0A1
009B:  BCF    03.0
009C:  RRF    78,F
009D:  RRF    79,F
009E:  RRF    7A,F
009F:  RRF    44,F
00A0:  GOTO   0A4
00A1:  DECF   77,F
00A2:  BTFSC  03.2
00A3:  GOTO   0E6
00A4:  BTFSC  44.7
00A5:  GOTO   0CD
00A6:  BCF    03.0
00A7:  RLF    3F,F
00A8:  RLF    40,F
00A9:  RLF    41,F
00AA:  RLF    42,F
00AB:  MOVF   3E,W
00AC:  SUBWF  3F,F
00AD:  BTFSC  03.0
00AE:  GOTO   0B9
00AF:  MOVLW  01
00B0:  SUBWF  40,F
00B1:  BTFSC  03.0
00B2:  GOTO   0B9
00B3:  SUBWF  41,F
00B4:  BTFSC  03.0
00B5:  GOTO   0B9
00B6:  SUBWF  42,F
00B7:  BTFSS  03.0
00B8:  GOTO   0DC
00B9:  MOVF   3D,W
00BA:  SUBWF  40,F
00BB:  BTFSC  03.0
00BC:  GOTO   0C4
00BD:  MOVLW  01
00BE:  SUBWF  41,F
00BF:  BTFSC  03.0
00C0:  GOTO   0C4
00C1:  SUBWF  42,F
00C2:  BTFSS  03.0
00C3:  GOTO   0DC
00C4:  MOVF   3C,W
00C5:  IORLW  80
00C6:  SUBWF  41,F
00C7:  BTFSC  03.0
00C8:  GOTO   0CD
00C9:  MOVLW  01
00CA:  SUBWF  42,F
00CB:  BTFSS  03.0
00CC:  GOTO   0DC
00CD:  INCF   7A,F
00CE:  BTFSS  03.2
00CF:  GOTO   0DC
00D0:  INCF   79,F
00D1:  BTFSS  03.2
00D2:  GOTO   0DC
00D3:  INCF   78,F
00D4:  BTFSS  03.2
00D5:  GOTO   0DC
00D6:  INCF   77,F
00D7:  BTFSC  03.2
00D8:  GOTO   0E6
00D9:  RRF    78,F
00DA:  RRF    79,F
00DB:  RRF    7A,F
00DC:  MOVF   38,W
00DD:  MOVWF  43
00DE:  MOVF   3C,W
00DF:  XORWF  43,F
00E0:  BTFSS  43.7
00E1:  GOTO   0E4
00E2:  BSF    78.7
00E3:  GOTO   0EA
00E4:  BCF    78.7
00E5:  GOTO   0EA
00E6:  CLRF   77
00E7:  CLRF   78
00E8:  CLRF   79
00E9:  CLRF   7A
00EA:  RETURN
00EB:  MOVF   40,W
00EC:  BTFSC  03.2
00ED:  GOTO   15B
00EE:  MOVWF  48
00EF:  MOVF   44,W
00F0:  BTFSC  03.2
00F1:  GOTO   15B
00F2:  ADDWF  48,F
00F3:  BTFSC  03.0
00F4:  GOTO   0FC
00F5:  MOVLW  7F
00F6:  SUBWF  48,F
00F7:  BTFSS  03.0
00F8:  GOTO   15B
00F9:  BTFSC  03.2
00FA:  GOTO   15B
00FB:  GOTO   100
00FC:  MOVLW  81
00FD:  ADDWF  48,F
00FE:  BTFSC  03.0
00FF:  GOTO   15B
0100:  MOVF   48,W
0101:  MOVWF  77
0102:  CLRF   78
0103:  CLRF   79
0104:  CLRF   7A
0105:  MOVF   41,W
0106:  MOVWF  4C
0107:  BSF    4C.7
0108:  MOVF   42,W
0109:  MOVWF  4B
010A:  MOVF   43,W
010B:  MOVWF  4A
010C:  MOVLW  18
010D:  MOVWF  48
010E:  CLRF   49
010F:  BTFSS  4A.0
0110:  GOTO   129
0111:  MOVF   47,W
0112:  ADDWF  7A,F
0113:  BTFSS  03.0
0114:  GOTO   11B
0115:  INCF   79,F
0116:  BTFSS  03.2
0117:  GOTO   11B
0118:  INCF   78,F
0119:  BTFSC  03.2
011A:  BSF    49.7
011B:  MOVF   46,W
011C:  ADDWF  79,F
011D:  BTFSS  03.0
011E:  GOTO   122
011F:  INCF   78,F
0120:  BTFSC  03.2
0121:  BSF    49.7
0122:  MOVF   45,W
0123:  MOVWF  42
0124:  BSF    42.7
0125:  MOVF   42,W
0126:  ADDWF  78,F
0127:  BTFSC  03.0
0128:  BSF    49.7
0129:  RLF    49,F
012A:  RRF    78,F
012B:  RRF    79,F
012C:  RRF    7A,F
012D:  RRF    4C,F
012E:  RRF    4B,F
012F:  RRF    4A,F
0130:  BCF    03.0
0131:  DECFSZ 48,F
0132:  GOTO   10E
0133:  MOVLW  01
0134:  ADDWF  77,F
0135:  BTFSC  03.0
0136:  GOTO   15B
0137:  BTFSC  78.7
0138:  GOTO   140
0139:  RLF    4C,F
013A:  RLF    7A,F
013B:  RLF    79,F
013C:  RLF    78,F
013D:  DECF   77,F
013E:  BTFSC  03.2
013F:  GOTO   15B
0140:  BTFSS  4C.7
0141:  GOTO   151
0142:  INCF   7A,F
0143:  BTFSS  03.2
0144:  GOTO   151
0145:  INCF   79,F
0146:  BTFSS  03.2
0147:  GOTO   151
0148:  INCF   78,F
0149:  BTFSS  03.2
014A:  GOTO   151
014B:  RRF    78,F
014C:  RRF    79,F
014D:  RRF    7A,F
014E:  INCF   77,F
014F:  BTFSC  03.2
0150:  GOTO   15B
0151:  MOVF   41,W
0152:  MOVWF  49
0153:  MOVF   45,W
0154:  XORWF  49,F
0155:  BTFSS  49.7
0156:  GOTO   159
0157:  BSF    78.7
0158:  GOTO   15F
0159:  BCF    78.7
015A:  GOTO   15F
015B:  CLRF   77
015C:  CLRF   78
015D:  CLRF   79
015E:  CLRF   7A
015F:  RETURN
0160:  BTFSC  03.1
0161:  GOTO   165
0162:  MOVLW  48
0163:  MOVWF  04
0164:  BCF    03.7
0165:  CLRF   77
0166:  CLRF   78
0167:  CLRF   79
0168:  CLRF   7A
0169:  CLRF   48
016A:  CLRF   49
016B:  CLRF   4A
016C:  CLRF   4B
016D:  MOVF   47,W
016E:  IORWF  46,W
016F:  IORWF  45,W
0170:  IORWF  44,W
0171:  BTFSC  03.2
0172:  GOTO   1A3
0173:  MOVLW  20
0174:  MOVWF  4C
0175:  BCF    03.0
0176:  RLF    40,F
0177:  RLF    41,F
0178:  RLF    42,F
0179:  RLF    43,F
017A:  RLF    48,F
017B:  RLF    49,F
017C:  RLF    4A,F
017D:  RLF    4B,F
017E:  MOVF   47,W
017F:  SUBWF  4B,W
0180:  BTFSS  03.2
0181:  GOTO   18C
0182:  MOVF   46,W
0183:  SUBWF  4A,W
0184:  BTFSS  03.2
0185:  GOTO   18C
0186:  MOVF   45,W
0187:  SUBWF  49,W
0188:  BTFSS  03.2
0189:  GOTO   18C
018A:  MOVF   44,W
018B:  SUBWF  48,W
018C:  BTFSS  03.0
018D:  GOTO   19D
018E:  MOVF   44,W
018F:  SUBWF  48,F
0190:  MOVF   45,W
0191:  BTFSS  03.0
0192:  INCFSZ 45,W
0193:  SUBWF  49,F
0194:  MOVF   46,W
0195:  BTFSS  03.0
0196:  INCFSZ 46,W
0197:  SUBWF  4A,F
0198:  MOVF   47,W
0199:  BTFSS  03.0
019A:  INCFSZ 47,W
019B:  SUBWF  4B,F
019C:  BSF    03.0
019D:  RLF    77,F
019E:  RLF    78,F
019F:  RLF    79,F
01A0:  RLF    7A,F
01A1:  DECFSZ 4C,F
01A2:  GOTO   175
01A3:  MOVF   48,W
01A4:  MOVWF  00
01A5:  INCF   04,F
01A6:  MOVF   49,W
01A7:  MOVWF  00
01A8:  INCF   04,F
01A9:  MOVF   4A,W
01AA:  MOVWF  00
01AB:  INCF   04,F
01AC:  MOVF   4B,W
01AD:  MOVWF  00
01AE:  RETURN
01AF:  MOVF   04,W
01B0:  MOVWF  38
01B1:  MOVF   37,W
01B2:  MOVWF  3A
01B3:  BTFSC  03.2
01B4:  GOTO   1CE
01B5:  MOVF   36,W
01B6:  MOVWF  43
01B7:  MOVF   35,W
01B8:  MOVWF  42
01B9:  MOVF   34,W
01BA:  MOVWF  41
01BB:  MOVF   33,W
01BC:  MOVWF  40
01BD:  CLRF   47
01BE:  CLRF   46
01BF:  MOVLW  20
01C0:  MOVWF  45
01C1:  MOVLW  82
01C2:  MOVWF  44
01C3:  CALL   0EB
01C4:  MOVF   7A,W
01C5:  MOVWF  36
01C6:  MOVF   79,W
01C7:  MOVWF  35
01C8:  MOVF   78,W
01C9:  MOVWF  34
01CA:  MOVF   77,W
01CB:  MOVWF  33
01CC:  DECFSZ 3A,F
01CD:  GOTO   1B5
01CE:  MOVF   36,W
01CF:  MOVWF  43
01D0:  MOVF   35,W
01D1:  MOVWF  42
01D2:  MOVF   34,W
01D3:  MOVWF  41
01D4:  MOVF   33,W
01D5:  MOVWF  40
01D6:  MOVF   40,W
01D7:  SUBLW  B6
01D8:  MOVWF  40
01D9:  CLRF   7A
01DA:  MOVF   41,W
01DB:  MOVWF  44
01DC:  BSF    41.7
01DD:  BCF    03.0
01DE:  RRF    41,F
01DF:  RRF    42,F
01E0:  RRF    43,F
01E1:  RRF    7A,F
01E2:  RRF    79,F
01E3:  RRF    78,F
01E4:  RRF    77,F
01E5:  DECFSZ 40,F
01E6:  GOTO   1DD
01E7:  BTFSS  44.7
01E8:  GOTO   1F4
01E9:  COMF   77,F
01EA:  COMF   78,F
01EB:  COMF   79,F
01EC:  COMF   7A,F
01ED:  INCF   77,F
01EE:  BTFSC  03.2
01EF:  INCF   78,F
01F0:  BTFSC  03.2
01F1:  INCF   79,F
01F2:  BTFSC  03.2
01F3:  INCF   7A,F
01F4:  MOVF   7A,W
01F5:  MOVWF  36
01F6:  MOVF   79,W
01F7:  MOVWF  35
01F8:  MOVF   78,W
01F9:  MOVWF  34
01FA:  MOVF   77,W
01FB:  MOVWF  33
01FC:  BTFSS  36.7
01FD:  GOTO   20B
01FE:  DECF   38,F
01FF:  BSF    38.5
0200:  COMF   33,F
0201:  COMF   34,F
0202:  COMF   35,F
0203:  COMF   36,F
0204:  INCF   33,F
0205:  BTFSC  03.2
0206:  INCF   34,F
0207:  BTFSC  03.2
0208:  INCF   35,F
0209:  BTFSC  03.2
020A:  INCF   36,F
020B:  MOVLW  3B
020C:  MOVWF  3F
020D:  MOVLW  9A
020E:  MOVWF  3E
020F:  MOVLW  CA
0210:  MOVWF  3D
0211:  CLRF   3C
0212:  MOVLW  0A
0213:  MOVWF  3A
0214:  MOVF   37,W
0215:  BTFSC  03.2
0216:  INCF   38,F
0217:  BSF    03.1
0218:  MOVLW  33
0219:  MOVWF  04
021A:  BCF    03.7
021B:  MOVF   36,W
021C:  MOVWF  43
021D:  MOVF   35,W
021E:  MOVWF  42
021F:  MOVF   34,W
0220:  MOVWF  41
0221:  MOVF   33,W
0222:  MOVWF  40
0223:  MOVF   3F,W
0224:  MOVWF  47
0225:  MOVF   3E,W
0226:  MOVWF  46
0227:  MOVF   3D,W
0228:  MOVWF  45
0229:  MOVF   3C,W
022A:  MOVWF  44
022B:  CALL   160
022C:  MOVF   78,W
022D:  MOVF   77,F
022E:  BTFSS  03.2
022F:  GOTO   243
0230:  INCF   37,W
0231:  SUBWF  3A,W
0232:  BTFSC  03.2
0233:  GOTO   243
0234:  MOVF   38,W
0235:  BTFSC  03.2
0236:  GOTO   245
0237:  ANDLW  0F
0238:  SUBWF  3A,W
0239:  BTFSC  03.2
023A:  GOTO   23D
023B:  BTFSC  03.0
023C:  GOTO   279
023D:  BTFSC  38.7
023E:  GOTO   279
023F:  BTFSC  38.6
0240:  GOTO   245
0241:  MOVLW  20
0242:  GOTO   274
0243:  MOVLW  20
0244:  ANDWF  38,F
0245:  BTFSS  38.5
0246:  GOTO   254
0247:  BCF    38.5
0248:  MOVF   37,W
0249:  BTFSS  03.2
024A:  DECF   38,F
024B:  MOVF   77,W
024C:  MOVWF  38
024D:  MOVLW  2D
024E:  BTFSS  0C.4
024F:  GOTO   24E
0250:  MOVWF  19
0251:  MOVF   38,W
0252:  MOVWF  77
0253:  CLRF   38
0254:  MOVF   37,W
0255:  SUBWF  3A,W
0256:  BTFSS  03.2
0257:  GOTO   263
0258:  MOVF   77,W
0259:  MOVWF  38
025A:  MOVLW  2E
025B:  BTFSS  0C.4
025C:  GOTO   25B
025D:  MOVWF  19
025E:  MOVF   38,W
025F:  MOVWF  77
0260:  MOVLW  20
0261:  ANDWF  38,F
0262:  MOVLW  00
0263:  MOVLW  30
0264:  BTFSS  38.5
0265:  GOTO   274
0266:  BCF    38.5
0267:  MOVF   37,W
0268:  BTFSS  03.2
0269:  DECF   38,F
026A:  MOVF   77,W
026B:  MOVWF  38
026C:  MOVLW  2D
026D:  BTFSS  0C.4
026E:  GOTO   26D
026F:  MOVWF  19
0270:  MOVF   38,W
0271:  MOVWF  77
0272:  CLRF   38
0273:  MOVLW  30
0274:  ADDWF  77,F
0275:  MOVF   77,W
0276:  BTFSS  0C.4
0277:  GOTO   276
0278:  MOVWF  19
0279:  BCF    03.1
027A:  MOVF   3F,W
027B:  MOVWF  43
027C:  MOVF   3E,W
027D:  MOVWF  42
027E:  MOVF   3D,W
027F:  MOVWF  41
0280:  MOVF   3C,W
0281:  MOVWF  40
0282:  CLRF   47
0283:  CLRF   46
0284:  CLRF   45
0285:  MOVLW  0A
0286:  MOVWF  44
0287:  CALL   160
0288:  MOVF   7A,W
0289:  MOVWF  3F
028A:  MOVF   79,W
028B:  MOVWF  3E
028C:  MOVF   78,W
028D:  MOVWF  3D
028E:  MOVF   77,W
028F:  MOVWF  3C
0290:  DECFSZ 3A,F
0291:  GOTO   217
0292:  RETURN
*
02AA:  MOVLW  8E
02AB:  MOVWF  77
02AC:  MOVF   33,W
02AD:  SUBWF  77,F
02AE:  MOVF   34,W
02AF:  MOVWF  79
02B0:  MOVF   35,W
02B1:  MOVWF  78
02B2:  BSF    79.7
02B3:  MOVF   77,F
02B4:  BTFSC  03.2
02B5:  GOTO   2C1
02B6:  BCF    03.0
02B7:  MOVF   79,F
02B8:  BTFSS  03.2
02B9:  GOTO   2BD
02BA:  MOVF   78,F
02BB:  BTFSC  03.2
02BC:  GOTO   2C1
02BD:  RRF    79,F
02BE:  RRF    78,F
02BF:  DECFSZ 77,F
02C0:  GOTO   2B6
02C1:  BTFSS  34.7
02C2:  GOTO   2C8
02C3:  COMF   78,F
02C4:  COMF   79,F
02C5:  INCF   78,F
02C6:  BTFSC  03.2
02C7:  INCF   79,F
02C8:  BCF    0A.3
02C9:  BCF    0A.4
02CA:  GOTO   40B (RETURN)
....................  
.................... #list 
....................  
.................... #device adc=10 
.................... #fuses XT, NOWDT, NOPROTECT, NOLVP, PUT, BROWNOUT 
.................... #use delay(clock=4000000) 
*
0293:  MOVLW  34
0294:  MOVWF  04
0295:  BCF    03.7
0296:  MOVF   00,W
0297:  BTFSC  03.2
0298:  GOTO   2A7
0299:  MOVLW  01
029A:  MOVWF  78
029B:  CLRF   77
029C:  DECFSZ 77,F
029D:  GOTO   29C
029E:  DECFSZ 78,F
029F:  GOTO   29B
02A0:  MOVLW  4A
02A1:  MOVWF  77
02A2:  DECFSZ 77,F
02A3:  GOTO   2A2
02A4:  GOTO   2A5
02A5:  DECFSZ 00,F
02A6:  GOTO   299
02A7:  BCF    0A.3
02A8:  BCF    0A.4
02A9:  GOTO   3D3 (RETURN)
.................... #use RS232(baud=9600,parity=N,xmit=pin_c6,rcv=pin_c7,bits=8) 
....................  
.................... float distancia, tiempo; 
.................... #define trigger pin_B1 
.................... #define echo pin_B0 
....................  
.................... int16 duty=0; 
.................... int Timer2, Postcaler; 
....................  
.................... void main(){ 
*
02CB:  MOVF   03,W
02CC:  ANDLW  1F
02CD:  MOVWF  03
02CE:  MOVLW  19
02CF:  BSF    03.5
02D0:  MOVWF  19
02D1:  MOVLW  A6
02D2:  MOVWF  18
02D3:  MOVLW  90
02D4:  BCF    03.5
02D5:  MOVWF  18
02D6:  CLRF   29
02D7:  CLRF   28
02D8:  MOVLW  FF
02D9:  MOVWF  2C
02DA:  BSF    03.5
02DB:  BSF    1F.0
02DC:  BSF    1F.1
02DD:  BSF    1F.2
02DE:  BCF    1F.3
02DF:  MOVLW  07
02E0:  MOVWF  1C
02E1:  BCF    03.7
....................  
....................    int16 dato; 
....................    float temperatura; 
....................    setup_timer_1(T1_internal|T1_div_by_1); 
02E2:  MOVLW  85
02E3:  BCF    03.5
02E4:  MOVWF  10
....................     
....................    //PWM 
....................    Timer2=249; 
02E5:  MOVLW  F9
02E6:  MOVWF  2A
....................    Postcaler=1; 
02E7:  MOVLW  01
02E8:  MOVWF  2B
....................     
....................    setup_timer_2(t2_div_by_4,Timer2,Postcaler); 
02E9:  SUBWF  2B,W
02EA:  MOVWF  78
02EB:  RLF    78,W
02EC:  MOVWF  77
02ED:  RLF    77,F
02EE:  RLF    77,F
02EF:  MOVLW  F8
02F0:  ANDWF  77,F
02F1:  MOVF   77,W
02F2:  IORLW  05
02F3:  MOVWF  12
02F4:  MOVF   2A,W
02F5:  BSF    03.5
02F6:  MOVWF  12
....................    setup_ccp1(ccp_pwm); 
02F7:  BCF    03.5
02F8:  BCF    2C.2
02F9:  MOVF   2C,W
02FA:  BSF    03.5
02FB:  MOVWF  07
02FC:  BCF    03.5
02FD:  BCF    07.2
02FE:  MOVLW  0C
02FF:  MOVWF  17
....................    setup_adc_ports(AN0); 
0300:  BSF    03.5
0301:  BCF    1F.0
0302:  BSF    1F.1
0303:  BSF    1F.2
0304:  BSF    1F.3
....................    setup_adc(adc_clock_internal); 
0305:  BCF    1F.6
0306:  BCF    03.5
0307:  BSF    1F.6
0308:  BSF    1F.7
0309:  BSF    03.5
030A:  BSF    1F.7
030B:  BCF    03.5
030C:  BSF    1F.0
....................    //PWM 
....................     
....................    while(true){ 
....................        
....................       output_high(trigger); // se crea el pulso de 
030D:  BSF    03.5
030E:  BCF    06.1
030F:  BCF    03.5
0310:  BSF    06.1
....................       delay_us(10);        // de 10 micro seg 
0311:  MOVLW  03
0312:  MOVWF  77
0313:  DECFSZ 77,F
0314:  GOTO   313
....................       output_low(trigger);//despues lo bajamos 
0315:  BSF    03.5
0316:  BCF    06.1
0317:  BCF    03.5
0318:  BCF    06.1
....................        
....................       //inicializamos el timer0 
....................       //mientras no detectemos nada en el pin de ECHO 
....................       //o no detecte nada el sensor ultrasonico 
....................       while(!input(echo)){ 
0319:  BSF    03.5
031A:  BSF    06.0
031B:  BCF    03.5
031C:  BTFSC  06.0
031D:  GOTO   322
....................          set_timer1(0); 
031E:  CLRF   0E
031F:  CLRF   0F
0320:  CLRF   0E
0321:  GOTO   319
....................       } 
....................        
....................       //ya se detecto un pulso de regreso 
....................       while(input(echo)); 
0322:  BSF    03.5
0323:  BSF    06.0
0324:  BCF    03.5
0325:  BTFSC  06.0
0326:  GOTO   322
....................        
....................       tiempo=get_timer1();//se obtiene el tiempo calculado  
0327:  MOVF   0F,W
0328:  MOVWF  7A
0329:  MOVF   0E,W
032A:  MOVWF  77
032B:  MOVF   0F,W
032C:  SUBWF  7A,W
032D:  BTFSS  03.2
032E:  GOTO   327
032F:  MOVF   77,W
0330:  MOVWF  33
0331:  MOVF   7A,W
0332:  MOVWF  34
0333:  CALL   004
0334:  MOVF   7A,W
0335:  MOVWF  27
0336:  MOVF   79,W
0337:  MOVWF  26
0338:  MOVF   78,W
0339:  MOVWF  25
033A:  MOVF   77,W
033B:  MOVWF  24
....................        
....................       distancia=(tiempo/2)*(0.0343);//conversion de la constante del sonido a cm/seg 
033C:  MOVF   27,W
033D:  MOVWF  3A
033E:  MOVF   26,W
033F:  MOVWF  39
0340:  MOVF   25,W
0341:  MOVWF  38
0342:  MOVF   24,W
0343:  MOVWF  37
0344:  CLRF   3E
0345:  CLRF   3D
0346:  CLRF   3C
0347:  MOVLW  80
0348:  MOVWF  3B
0349:  CALL   021
034A:  MOVF   7A,W
034B:  MOVWF  36
034C:  MOVF   79,W
034D:  MOVWF  35
034E:  MOVF   78,W
034F:  MOVWF  34
0350:  MOVF   77,W
0351:  MOVWF  33
0352:  MOVF   7A,W
0353:  MOVWF  43
0354:  MOVF   79,W
0355:  MOVWF  42
0356:  MOVF   78,W
0357:  MOVWF  41
0358:  MOVF   77,W
0359:  MOVWF  40
035A:  MOVLW  28
035B:  MOVWF  47
035C:  MOVLW  7E
035D:  MOVWF  46
035E:  MOVLW  0C
035F:  MOVWF  45
0360:  MOVLW  7A
0361:  MOVWF  44
0362:  CALL   0EB
0363:  MOVF   7A,W
0364:  MOVWF  23
0365:  MOVF   79,W
0366:  MOVWF  22
0367:  MOVF   78,W
0368:  MOVWF  21
0369:  MOVF   77,W
036A:  MOVWF  20
....................        
....................       dato = read_adc(); 
036B:  BSF    1F.2
036C:  BTFSC  1F.2
036D:  GOTO   36C
036E:  BSF    03.5
036F:  MOVF   1E,W
0370:  BCF    03.5
0371:  MOVWF  2D
0372:  MOVF   1E,W
0373:  MOVWF  2E
....................       temperatura=(dato*100.00)/1023.00; 
0374:  MOVF   2E,W
0375:  MOVWF  34
0376:  MOVF   2D,W
0377:  MOVWF  33
0378:  CALL   004
0379:  MOVF   7A,W
037A:  MOVWF  43
037B:  MOVF   79,W
037C:  MOVWF  42
037D:  MOVF   78,W
037E:  MOVWF  41
037F:  MOVF   77,W
0380:  MOVWF  40
0381:  CLRF   47
0382:  CLRF   46
0383:  MOVLW  48
0384:  MOVWF  45
0385:  MOVLW  85
0386:  MOVWF  44
0387:  CALL   0EB
0388:  MOVF   7A,W
0389:  MOVWF  36
038A:  MOVF   79,W
038B:  MOVWF  35
038C:  MOVF   78,W
038D:  MOVWF  34
038E:  MOVF   77,W
038F:  MOVWF  33
0390:  MOVF   7A,W
0391:  MOVWF  3A
0392:  MOVF   79,W
0393:  MOVWF  39
0394:  MOVF   78,W
0395:  MOVWF  38
0396:  MOVF   77,W
0397:  MOVWF  37
0398:  CLRF   3E
0399:  MOVLW  C0
039A:  MOVWF  3D
039B:  MOVLW  7F
039C:  MOVWF  3C
039D:  MOVLW  88
039E:  MOVWF  3B
039F:  CALL   021
03A0:  MOVF   7A,W
03A1:  MOVWF  32
03A2:  MOVF   79,W
03A3:  MOVWF  31
03A4:  MOVF   78,W
03A5:  MOVWF  30
03A6:  MOVF   77,W
03A7:  MOVWF  2F
....................        
....................        
....................       //se imprime la distancia y tiempo  
....................        
....................       printf("\r%f,%f\n",distancia,temperatura); 
03A8:  MOVLW  0D
03A9:  BTFSS  0C.4
03AA:  GOTO   3A9
03AB:  MOVWF  19
03AC:  MOVLW  89
03AD:  MOVWF  04
03AE:  MOVF   23,W
03AF:  MOVWF  36
03B0:  MOVF   22,W
03B1:  MOVWF  35
03B2:  MOVF   21,W
03B3:  MOVWF  34
03B4:  MOVF   20,W
03B5:  MOVWF  33
03B6:  MOVLW  02
03B7:  MOVWF  37
03B8:  CALL   1AF
03B9:  MOVLW  2C
03BA:  BTFSS  0C.4
03BB:  GOTO   3BA
03BC:  MOVWF  19
03BD:  MOVLW  89
03BE:  MOVWF  04
03BF:  MOVF   32,W
03C0:  MOVWF  36
03C1:  MOVF   31,W
03C2:  MOVWF  35
03C3:  MOVF   30,W
03C4:  MOVWF  34
03C5:  MOVF   2F,W
03C6:  MOVWF  33
03C7:  MOVLW  02
03C8:  MOVWF  37
03C9:  CALL   1AF
03CA:  MOVLW  0A
03CB:  BTFSS  0C.4
03CC:  GOTO   3CB
03CD:  MOVWF  19
....................       //printf("\rDistancia=%f\n",distancia); 
....................       //printf("\rTiempo=%f\n",tiempo); 
....................           
....................       delay_ms(500); 
03CE:  MOVLW  02
03CF:  MOVWF  33
03D0:  MOVLW  FA
03D1:  MOVWF  34
03D2:  GOTO   293
03D3:  DECFSZ 33,F
03D4:  GOTO   3D0
....................        
....................       //PWM 
....................       set_adc_channel(0); 
03D5:  MOVLW  00
03D6:  MOVWF  78
03D7:  MOVF   1F,W
03D8:  ANDLW  C7
03D9:  IORWF  78,W
03DA:  MOVWF  1F
....................       duty=((distancia*1023)/200); 
03DB:  MOVF   23,W
03DC:  MOVWF  43
03DD:  MOVF   22,W
03DE:  MOVWF  42
03DF:  MOVF   21,W
03E0:  MOVWF  41
03E1:  MOVF   20,W
03E2:  MOVWF  40
03E3:  CLRF   47
03E4:  MOVLW  C0
03E5:  MOVWF  46
03E6:  MOVLW  7F
03E7:  MOVWF  45
03E8:  MOVLW  88
03E9:  MOVWF  44
03EA:  CALL   0EB
03EB:  MOVF   7A,W
03EC:  MOVWF  36
03ED:  MOVF   79,W
03EE:  MOVWF  35
03EF:  MOVF   78,W
03F0:  MOVWF  34
03F1:  MOVF   77,W
03F2:  MOVWF  33
03F3:  MOVF   7A,W
03F4:  MOVWF  3A
03F5:  MOVF   79,W
03F6:  MOVWF  39
03F7:  MOVF   78,W
03F8:  MOVWF  38
03F9:  MOVF   77,W
03FA:  MOVWF  37
03FB:  CLRF   3E
03FC:  CLRF   3D
03FD:  MOVLW  48
03FE:  MOVWF  3C
03FF:  MOVLW  86
0400:  MOVWF  3B
0401:  CALL   021
0402:  MOVF   7A,W
0403:  MOVWF  36
0404:  MOVF   79,W
0405:  MOVWF  35
0406:  MOVF   78,W
0407:  MOVWF  34
0408:  MOVF   77,W
0409:  MOVWF  33
040A:  GOTO   2AA
040B:  MOVF   79,W
040C:  MOVWF  29
040D:  MOVF   78,W
040E:  MOVWF  28
....................       set_pwm1_duty(duty); 
040F:  MOVF   29,W
0410:  MOVWF  79
0411:  MOVF   28,W
0412:  MOVWF  78
0413:  RRF    79,F
0414:  RRF    78,F
0415:  RRF    79,F
0416:  RRF    78,F
0417:  RRF    79,F
0418:  MOVF   78,W
0419:  MOVWF  15
041A:  RRF    79,F
041B:  RRF    79,W
041C:  ANDLW  30
041D:  MOVWF  77
041E:  MOVF   17,W
041F:  ANDLW  CF
0420:  IORWF  77,W
0421:  MOVWF  17
0422:  GOTO   30D
....................       //PWM 
....................    } 
....................     
.................... } 
0423:  SLEEP

Configuration Fuses:
   Word  1: 3F71   XT NOWDT PUT BROWNOUT NOLVP NOCPD NOWRT NODEBUG NOPROTECT
